; Function Attrs: nofree nounwind uwtable
define hidden void @sk_sort(ptr noundef captures(address_is_null) %0) local_unnamed_addr #12 {
  %2 = icmp eq ptr %0, null
  br i1 %2, label %14, label %3

3:                                                ; preds = %1
  %4 = getelementptr inbounds nuw i8, ptr %0, i64 32
  %5 = load ptr, ptr %4, align 8, !tbaa !12
  %6 = icmp eq ptr %5, null
  br i1 %6, label %14, label %7

7:                                                ; preds = %3
  %8 = getelementptr inbounds nuw i8, ptr %0, i64 16
  %9 = load i64, ptr %8, align 8, !tbaa !15
  %.not = icmp eq i64 %9, 0
  br i1 %.not, label %10, label %14

10:                                               ; preds = %7
  %11 = getelementptr inbounds nuw i8, ptr %0, i64 8
  %12 = load ptr, ptr %11, align 8, !tbaa !6
  %13 = load i64, ptr %0, align 8, !tbaa !14
  tail call void @qsort(ptr noundef %12, i64 noundef %13, i64 noundef 8, ptr noundef nonnull %5) #17
  store i64 1, ptr %8, align 8, !tbaa !15
  br label %14

14:                                               ; preds = %1, %3, %7, %10
  ret void
}